Certificate:
    Data:
        Version: 3 (0x2)
        Serial Number: 1 (0x1)
        Signature Algorithm: sha256WithRSAEncryption
        Issuer: C=CN, ST=Beijing, O=huawei, OU=gauss, CN=root
        Validity
            Not Before: Aug 12 10:26:37 2024 GMT
            Not After : Jul 19 10:26:37 2124 GMT
        Subject: C=CN, ST=Beijing, O=huawei, OU=gauss, CN=root
        Subject Public Key Info:
            Public Key Algorithm: rsaEncryption
                RSA Public-Key: (2048 bit)
                Modulus:
                    00:c9:d5:34:74:d2:19:c3:32:5e:29:69:0e:20:26:
                    fa:61:61:8c:95:3a:a4:10:65:92:bc:af:9d:1d:8f:
                    1c:98:fd:17:ba:20:bb:e1:47:ac:b1:a0:3d:67:de:
                    3a:3f:d2:46:60:76:b3:fc:cf:0f:9e:27:92:c4:a8:
                    77:1c:1d:2c:db:e5:9b:f4:cb:a6:a9:1f:a3:2a:59:
                    f5:94:53:72:28:7e:9a:0c:2b:01:f2:5c:d1:fc:88:
                    ef:02:c8:c9:92:96:87:76:10:da:1d:54:ce:5d:b1:
                    16:88:15:db:24:0b:74:ee:e3:ec:f0:f1:84:5c:05:
                    b4:12:6e:6a:26:49:3e:c3:12:68:82:39:cb:8c:1b:
                    e4:26:9b:b4:79:1e:ef:b2:1d:be:a9:98:e6:d1:bf:
                    bd:b0:94:38:6f:27:58:9c:7c:43:7a:3d:f5:41:00:
                    04:78:0f:fc:3e:f4:79:26:c4:6a:1c:ac:cc:60:45:
                    d7:8c:65:5b:08:41:0c:36:71:8f:c7:e3:26:89:d2:
                    46:a0:18:e0:6c:25:c4:ac:c6:3e:ce:a3:6b:33:b1:
                    1a:a4:e5:5c:60:03:51:c3:e3:1d:6a:26:01:d0:86:
                    dc:a6:f9:35:85:4d:e7:ad:25:08:cb:0b:a4:15:f5:
                    45:0e:16:bc:73:aa:e0:0b:24:fe:57:63:fc:ec:b7:
                    e4:bf
                Exponent: 65537 (0x10001)
        X509v3 extensions:
            X509v3 Basic Constraints: 
                CA:TRUE
            Netscape Comment: 
                OpenSSL Generated Certificate
            X509v3 Subject Key Identifier: 
                2D:12:8D:24:AD:F3:CA:2C:F3:AB:0D:10:34:84:55:75:35:A5:D1:AE
            X509v3 Authority Key Identifier: 
                keyid:2D:12:8D:24:AD:F3:CA:2C:F3:AB:0D:10:34:84:55:75:35:A5:D1:AE

    Signature Algorithm: sha256WithRSAEncryption
         bd:0c:0e:a9:fd:61:c1:e9:8f:e5:22:c2:c5:43:28:66:fb:7b:
         4c:ca:d6:c6:9c:2d:a2:de:e5:c4:c9:41:ba:2f:73:ff:9a:66:
         34:25:9a:a3:a7:ba:5b:48:8e:4a:aa:39:bd:3c:28:77:0d:2c:
         75:c4:cb:18:02:95:6a:39:67:69:e2:e5:8b:17:29:5d:5a:06:
         ba:c8:7c:20:ca:d6:60:24:c0:81:97:ee:5e:40:33:8c:98:1c:
         d3:34:c2:7c:81:4b:43:af:58:03:53:58:86:32:af:04:e0:08:
         9f:1d:0c:ca:50:a9:c3:1c:e9:d1:53:d1:7f:51:4f:ab:9d:12:
         73:ec:d0:8f:e9:c8:ff:f1:27:07:f1:3f:34:d5:ea:df:d1:57:
         b0:5c:bc:26:77:1b:9e:e3:59:2b:85:4f:53:26:64:89:a7:7c:
         e9:84:e2:76:69:c6:95:82:21:63:25:57:e7:39:1a:76:15:40:
         e7:e9:c4:5a:d7:4f:55:51:37:c2:a0:2d:45:b5:4b:fd:a0:78:
         e8:3e:b7:b3:42:eb:83:20:36:1c:96:0e:b4:43:2e:21:d8:c4:
         c9:f9:7c:ae:65:56:dd:82:e7:f7:9c:14:54:5b:89:ee:39:0b:
         8e:5f:a6:97:28:b6:64:77:df:e9:9a:fb:0e:d5:cf:f0:e2:20:
         53:73:63:b5
-----BEGIN CERTIFICATE-----
MIIDmTCCAoGgAwIBAgIBATANBgkqhkiG9w0BAQsFADBPMQswCQYDVQQGEwJDTjEQ
MA4GA1UECAwHQmVpamluZzEPMA0GA1UECgwGaHVhd2VpMQ4wDAYDVQQLDAVnYXVz
czENMAsGA1UEAwwEcm9vdDAgFw0yNDA4MTIxMDI2MzdaGA8yMTI0MDcxOTEwMjYz
N1owTzELMAkGA1UEBhMCQ04xEDAOBgNVBAgMB0JlaWppbmcxDzANBgNVBAoMBmh1
YXdlaTEOMAwGA1UECwwFZ2F1c3MxDTALBgNVBAMMBHJvb3QwggEiMA0GCSqGSIb3
DQEBAQUAA4IBDwAwggEKAoIBAQDJ1TR00hnDMl4paQ4gJvphYYyVOqQQZZK8r50d
jxyY/Re6ILvhR6yxoD1n3jo/0kZgdrP8zw+eJ5LEqHccHSzb5Zv0y6apH6MqWfWU
U3IofpoMKwHyXNH8iO8CyMmSlod2ENodVM5dsRaIFdskC3Tu4+zw8YRcBbQSbmom
ST7DEmiCOcuMG+Qmm7R5Hu+yHb6pmObRv72wlDhvJ1icfEN6PfVBAAR4D/w+9Hkm
xGocrMxgRdeMZVsIQQw2cY/H4yaJ0kagGOBsJcSsxj7Oo2szsRqk5VxgA1HD4x1q
JgHQhtym+TWFTeetJQjLC6QV9UUOFrxzquALJP5XY/zst+S/AgMBAAGjfjB8MAwG
A1UdEwQFMAMBAf8wLAYJYIZIAYb4QgENBB8WHU9wZW5TU0wgR2VuZXJhdGVkIENl
cnRpZmljYXRlMB0GA1UdDgQWBBQtEo0krfPKLPOrDRA0hFV1NaXRrjAfBgNVHSME
GDAWgBQtEo0krfPKLPOrDRA0hFV1NaXRrjANBgkqhkiG9w0BAQsFAAOCAQEAvQwO
qf1hwemP5SLCxUMoZvt7TMrWxpwtot7lxMlBui9z/5pmNCWao6e6W0iOSqo5vTwo
dw0sdcTLGAKVajlnaeLlixcpXVoGush8IMrWYCTAgZfuXkAzjJgc0zTCfIFLQ69Y
A1NYhjKvBOAInx0MylCpwxzp0VPRf1FPq50Sc+zQj+nI//EnB/E/NNXq39FXsFy8
JncbnuNZK4VPUyZkiad86YTidmnGlYIhYyVX5zkadhVA5+nEWtdPVVE3wqAtRbVL
/aB46D63s0LrgyA2HJYOtEMuIdjEyfl8rmVW3YLn95wUVFuJ7jkLjl+mlyi2ZHff
6Zr7DtXP8OIgU3NjtQ==
-----END CERTIFICATE-----
