Certificate:
    Data:
        Version: 3 (0x2)
        Serial Number: 2 (0x2)
        Signature Algorithm: sha256WithRSAEncryption
        Issuer: C=CN, ST=Beijing, O=huawei, OU=gauss, CN=root
        Validity
            Not Before: Aug 12 10:26:37 2024 GMT
            Not After : Jul 19 10:26:37 2124 GMT
        Subject: C=CN, ST=Beijing, O=huawei, OU=gauss, CN=server
        Subject Public Key Info:
            Public Key Algorithm: rsaEncryption
                RSA Public-Key: (2048 bit)
                Modulus:
                    00:b7:68:bb:77:bf:0a:0b:1f:7a:ac:b7:40:45:12:
                    03:d5:ba:5c:41:0b:81:76:26:f2:67:75:52:cd:74:
                    0c:d6:18:09:bd:25:2b:48:1b:37:8d:b0:78:7f:21:
                    0c:59:3c:94:f8:de:03:db:c6:e4:7c:ca:d5:c9:2f:
                    8a:53:f4:08:cd:cb:ca:96:2b:e6:e1:e2:3f:2f:86:
                    49:45:11:3e:b5:b6:a2:23:6c:68:1e:fe:11:6c:8b:
                    89:13:d3:74:4e:51:63:31:2f:2e:c4:d2:ec:12:12:
                    b9:28:50:bc:72:70:6b:52:85:5b:33:b6:db:98:c9:
                    32:36:e8:40:74:20:0e:d3:f2:1c:89:ee:50:e5:9a:
                    e3:5f:d0:3d:72:73:ce:4a:dd:2c:7f:70:f5:86:f7:
                    a1:31:9f:09:02:58:1b:ad:6a:dc:b0:88:eb:98:1b:
                    d5:02:74:f3:35:59:95:d6:f4:e2:5d:54:17:f6:e2:
                    6b:fe:0a:2c:d2:43:fc:40:d7:1b:11:91:4f:96:92:
                    bf:77:81:03:52:8f:bd:c2:5f:00:bb:1c:41:12:9c:
                    2a:7d:86:cd:c7:10:29:bd:b2:da:60:04:82:3a:3c:
                    84:fc:db:64:2f:d7:a7:e0:54:ad:65:24:71:a7:ef:
                    0b:b6:c5:3c:b4:ae:e5:3d:af:20:2e:08:ef:c6:ce:
                    b3:65
                Exponent: 65537 (0x10001)
        X509v3 extensions:
            X509v3 Basic Constraints: 
                CA:FALSE
            Netscape Comment: 
                OpenSSL Generated Certificate
            X509v3 Subject Key Identifier: 
                1A:FF:59:CD:53:B0:26:E9:F6:18:E7:73:E1:54:3F:04:6D:B2:4A:72
            X509v3 Authority Key Identifier: 
                keyid:2D:12:8D:24:AD:F3:CA:2C:F3:AB:0D:10:34:84:55:75:35:A5:D1:AE

    Signature Algorithm: sha256WithRSAEncryption
         7f:31:03:83:0d:72:77:b2:e4:68:6e:58:b4:cd:3d:24:1d:e3:
         7b:0e:0e:9f:ab:f9:c0:d9:33:f8:61:c8:da:71:9b:f3:1c:65:
         0c:2d:c0:74:e1:68:6e:3b:e9:1a:1b:1d:9a:10:52:ca:cd:24:
         71:3c:a4:aa:d8:b9:6e:74:96:ab:3d:6d:ab:b5:19:52:4b:50:
         25:7b:0d:33:94:1d:48:5d:bb:c1:80:19:fd:19:d2:23:11:f4:
         a7:27:b2:b0:08:63:3d:17:b2:7b:f6:9a:0c:39:94:23:4f:83:
         5c:cb:6a:ba:05:ed:89:c9:fc:9c:02:bc:58:31:d4:e5:89:cd:
         e0:df:88:53:53:86:52:42:2a:e2:cd:f9:ad:c5:36:08:f2:04:
         89:f6:0f:51:a2:07:dd:e7:fc:6c:56:a3:94:38:45:f4:b2:b2:
         62:4f:24:2f:f4:93:42:cd:8b:56:c2:8e:86:c0:5d:5c:2e:cd:
         4b:0a:40:33:2c:14:e9:bf:73:c0:01:07:94:56:f9:ae:fa:e5:
         0d:26:bf:85:c7:98:fa:72:5d:4b:b3:ca:cc:85:c7:ec:e4:64:
         2a:70:2f:30:e2:43:1d:f5:24:15:d3:61:35:45:35:5b:4f:1d:
         d0:fb:63:15:86:7b:11:88:33:4e:63:3b:ba:9b:04:51:3a:93:
         9d:c8:02:dc
-----BEGIN CERTIFICATE-----
MIIDmDCCAoCgAwIBAgIBAjANBgkqhkiG9w0BAQsFADBPMQswCQYDVQQGEwJDTjEQ
MA4GA1UECAwHQmVpamluZzEPMA0GA1UECgwGaHVhd2VpMQ4wDAYDVQQLDAVnYXVz
czENMAsGA1UEAwwEcm9vdDAgFw0yNDA4MTIxMDI2MzdaGA8yMTI0MDcxOTEwMjYz
N1owUTELMAkGA1UEBhMCQ04xEDAOBgNVBAgMB0JlaWppbmcxDzANBgNVBAoMBmh1
YXdlaTEOMAwGA1UECwwFZ2F1c3MxDzANBgNVBAMMBnNlcnZlcjCCASIwDQYJKoZI
hvcNAQEBBQADggEPADCCAQoCggEBALdou3e/Cgsfeqy3QEUSA9W6XEELgXYm8md1
Us10DNYYCb0lK0gbN42weH8hDFk8lPjeA9vG5HzK1ckvilP0CM3LypYr5uHiPy+G
SUURPrW2oiNsaB7+EWyLiRPTdE5RYzEvLsTS7BISuShQvHJwa1KFWzO225jJMjbo
QHQgDtPyHInuUOWa41/QPXJzzkrdLH9w9Yb3oTGfCQJYG61q3LCI65gb1QJ08zVZ
ldb04l1UF/bia/4KLNJD/EDXGxGRT5aSv3eBA1KPvcJfALscQRKcKn2GzccQKb2y
2mAEgjo8hPzbZC/Xp+BUrWUkcafvC7bFPLSu5T2vIC4I78bOs2UCAwEAAaN7MHkw
CQYDVR0TBAIwADAsBglghkgBhvhCAQ0EHxYdT3BlblNTTCBHZW5lcmF0ZWQgQ2Vy
dGlmaWNhdGUwHQYDVR0OBBYEFBr/Wc1TsCbp9hjnc+FUPwRtskpyMB8GA1UdIwQY
MBaAFC0SjSSt88os86sNEDSEVXU1pdGuMA0GCSqGSIb3DQEBCwUAA4IBAQB/MQOD
DXJ3suRobli0zT0kHeN7Dg6fq/nA2TP4YcjacZvzHGUMLcB04WhuO+kaGx2aEFLK
zSRxPKSq2LludJarPW2rtRlSS1Alew0zlB1IXbvBgBn9GdIjEfSnJ7KwCGM9F7J7
9poMOZQjT4Ncy2q6Be2JyfycArxYMdTlic3g34hTU4ZSQirizfmtxTYI8gSJ9g9R
ogfd5/xsVqOUOEX0srJiTyQv9JNCzYtWwo6GwF1cLs1LCkAzLBTpv3PAAQeUVvmu
+uUNJr+Fx5j6cl1Ls8rMhcfs5GQqcC8w4kMd9SQV02E1RTVbTx3Q+2MVhnsRiDNO
Yzu6mwRROpOdyALc
-----END CERTIFICATE-----
